	.file	"3.67.c"
	.text
	.globl	process
	.type	process, @function
process:
.LFB0:
	.cfi_startproc
	pushq	%rbp
	.cfi_def_cfa_offset 16
	.cfi_offset 6, -16
	movq	%rsp, %rbp
	.cfi_def_cfa_register 6
	movq	%rdi, -40(%rbp)
	movq	24(%rbp), %rax
	movq	%rax, -32(%rbp)
	movq	16(%rbp), %rax
	movq	%rax, -24(%rbp)
	movq	32(%rbp), %rax
	movq	(%rax), %rax
	movq	%rax, -16(%rbp)
	movq	-40(%rbp), %rax
	movq	-32(%rbp), %rdx
	movq	%rdx, (%rax)
	movq	-24(%rbp), %rdx
	movq	%rdx, 8(%rax)
	movq	-16(%rbp), %rdx
	movq	%rdx, 16(%rax)
	movq	-40(%rbp), %rax
	popq	%rbp
	.cfi_def_cfa 7, 8
	ret
	.cfi_endproc
.LFE0:
	.size	process, .-process
	.globl	eval
	.type	eval, @function
eval:
.LFB1:
	.cfi_startproc
	pushq	%rbp
	.cfi_def_cfa_offset 16
	.cfi_offset 6, -16
	movq	%rsp, %rbp
	.cfi_def_cfa_register 6
	subq	$112, %rsp
	movq	%rdi, -72(%rbp)
	movq	%rsi, -80(%rbp)
	movq	%rdx, -88(%rbp)
	movq	-72(%rbp), %rax
	movq	%rax, -32(%rbp)
	movq	-80(%rbp), %rax
	movq	%rax, -24(%rbp)
	leaq	-88(%rbp), %rax
	movq	%rax, -16(%rbp)
	leaq	-64(%rbp), %rax
	movq	-32(%rbp), %rdx
	movq	%rdx, (%rsp)
	movq	-24(%rbp), %rdx
	movq	%rdx, 8(%rsp)
	movq	-16(%rbp), %rdx
	movq	%rdx, 16(%rsp)
	movq	%rax, %rdi
	call	process
	movq	-64(%rbp), %rdx
	movq	-56(%rbp), %rax
	addq	%rax, %rdx
	movq	-48(%rbp), %rax
	addq	%rdx, %rax
	leave
	.cfi_def_cfa 7, 8
	ret
	.cfi_endproc
.LFE1:
	.size	eval, .-eval
	.ident	"GCC: (GNU) 4.8.5 20150623 (Red Hat 4.8.5-39)"
	.section	.note.GNU-stack,"",@progbits
